target datalayout = "e-m:e-p270:32:32-p271:32:32-p272:64:64-i64:64-i128:128-f80:128-n8:16:32:64-S128"
target triple = "x86_64-pc-linux-gnu"

%struct.persist_conn_t = type { ptr, i32, i32, i8, ptr, ptr, ptr, i64, i16, i32, i16, i8, i32, i32, ptr, i16, ptr, i64, i32, ptr, %struct.slurm_trigger_callbacks_t, i16 }
%struct.slurm_trigger_callbacks_t = type { ptr, ptr, ptr, ptr, ptr }
%struct.persist_msg_t = type { ptr, ptr, i16 }
%struct.dbd_register_ctld_msg = type { i16, i32, i16 }

@plugin_type = dso_local constant [28 x i8] c"accounting_storage/slurmdbd\00", align 16
@.str.72 = private unnamed_addr constant [61 x i8] c"%s: %s: Registering slurmctld at port %u with slurmdbd %s:%d\00", align 1
@__func__.clusteracct_storage_p_register_ctld = private unnamed_addr constant [36 x i8] c"clusteracct_storage_p_register_ctld\00", align 1
@.str.73 = private unnamed_addr constant [55 x i8] c"%s: %s: Registering slurmctld at port %u with slurmdbd\00", align 1

; Function Attrs: nounwind uwtable
define dso_local i32 @clusteracct_storage_p_register_ctld(ptr noundef %0, i16 noundef zeroext %1) #0 {
  %3 = alloca ptr, align 8
  %4 = alloca i16, align 2
  %5 = alloca %struct.persist_msg_t, align 8
  %6 = alloca %struct.dbd_register_ctld_msg, align 4
  %7 = alloca i32, align 4
  store ptr %0, ptr %3, align 8
  store i16 %1, ptr %4, align 2
  call void @llvm.lifetime.start.p0(i64 24, ptr %5) #9
  call void @llvm.memset.p0.i64(ptr align 8 %5, i8 0, i64 24, i1 false)
  call void @llvm.lifetime.start.p0(i64 12, ptr %6) #9
  call void @llvm.lifetime.start.p0(i64 4, ptr %7) #9
  store i32 0, ptr %7, align 4
  call void @llvm.memset.p0.i64(ptr align 4 %6, i8 0, i64 12, i1 false)
  %8 = load i16, ptr %4, align 2
  %9 = getelementptr inbounds nuw %struct.dbd_register_ctld_msg, ptr %6, i32 0, i32 2
  store i16 %8, ptr %9, align 4
  %10 = getelementptr inbounds nuw %struct.dbd_register_ctld_msg, ptr %6, i32 0, i32 0
  store i16 1, ptr %10, align 4
  %11 = call i32 @slurmdb_setup_cluster_flags()
  %12 = getelementptr inbounds nuw %struct.dbd_register_ctld_msg, ptr %6, i32 0, i32 1
  store i32 %11, ptr %12, align 4
  %13 = getelementptr inbounds nuw %struct.persist_msg_t, ptr %5, i32 0, i32 2
  store i16 1434, ptr %13, align 8
  %14 = load ptr, ptr %3, align 8
  %15 = getelementptr inbounds nuw %struct.persist_msg_t, ptr %5, i32 0, i32 0
  store ptr %14, ptr %15, align 8
  %16 = getelementptr inbounds nuw %struct.persist_msg_t, ptr %5, i32 0, i32 1
  store ptr %6, ptr %16, align 8
  %17 = load ptr, ptr %3, align 8
  %18 = icmp ne ptr %17, null
  br i1 %18, label %19, label %51

19:                                               ; preds = %2
  %20 = load ptr, ptr %3, align 8
  %21 = getelementptr inbounds nuw %struct.persist_conn_t, ptr %20, i32 0, i32 10
  %22 = load i16, ptr %21, align 8
  %23 = zext i16 %22 to i64
  %24 = and i64 %23, 32
  %25 = icmp ne i64 %24, 0
  br i1 %25, label %26, label %51

26:                                               ; preds = %19
  %27 = getelementptr inbounds nuw %struct.dbd_register_ctld_msg, ptr %6, i32 0, i32 1
  %28 = load i32, ptr %27, align 4
  %29 = zext i32 %28 to i64
  %30 = or i64 %29, 4096
  %31 = trunc i64 %30 to i32
  store i32 %31, ptr %27, align 4
  br label %32

32:                                               ; preds = %26
  br label %33

33:                                               ; preds = %32
  %34 = call i32 @slurm_get_log_level()
  %35 = icmp sge i32 %34, 3
  br i1 %35, label %36, label %46

36:                                               ; preds = %33
  %37 = load i16, ptr %4, align 2
  %38 = zext i16 %37 to i32
  %39 = load ptr, ptr %3, align 8
  %40 = getelementptr inbounds nuw %struct.persist_conn_t, ptr %39, i32 0, i32 14
  %41 = load ptr, ptr %40, align 8
  %42 = load ptr, ptr %3, align 8
  %43 = getelementptr inbounds nuw %struct.persist_conn_t, ptr %42, i32 0, i32 15
  %44 = load i16, ptr %43, align 8
  %45 = zext i16 %44 to i32
  call void (i32, ptr, ...) @slurm_log_var(i32 noundef 3, ptr noundef @.str.72, ptr noundef @plugin_type, ptr noundef @__func__.clusteracct_storage_p_register_ctld, i32 noundef %38, ptr noundef %41, i32 noundef %45)
  br label %46

46:                                               ; preds = %36, %33
  br label %47

47:                                               ; preds = %46
  br label %48

48:                                               ; preds = %47
  br label %49

49:                                               ; preds = %48
  br label %50

50:                                               ; preds = %49
  br label %64

51:                                               ; preds = %19, %2
  br label %52

52:                                               ; preds = %51
  br label %53

53:                                               ; preds = %52
  %54 = call i32 @slurm_get_log_level()
  %55 = icmp sge i32 %54, 3
  br i1 %55, label %56, label %59

56:                                               ; preds = %53
  %57 = load i16, ptr %4, align 2
  %58 = zext i16 %57 to i32
  call void (i32, ptr, ...) @slurm_log_var(i32 noundef 3, ptr noundef @.str.73, ptr noundef @plugin_type, ptr noundef @__func__.clusteracct_storage_p_register_ctld, i32 noundef %58)
  br label %59

59:                                               ; preds = %56, %53
  br label %60

60:                                               ; preds = %59
  br label %61

61:                                               ; preds = %60
  br label %62

62:                                               ; preds = %61
  br label %63

63:                                               ; preds = %62
  br label %64

64:                                               ; preds = %63, %50
  %65 = call i32 @dbd_conn_send_recv_rc_msg(i16 noundef zeroext 11008, ptr noundef %5, ptr noundef %7)
  %66 = load i32, ptr %7, align 4
  call void @llvm.lifetime.end.p0(i64 4, ptr %7) #9
  call void @llvm.lifetime.end.p0(i64 12, ptr %6) #9
  call void @llvm.lifetime.end.p0(i64 24, ptr %5) #9
  ret i32 %66
}