; Function Attrs: nounwind uwtable
define dso_local i32 @clusteracct_storage_p_register_ctld(ptr noundef %0, i16 noundef zeroext %1) local_unnamed_addr #0 {
  %3 = alloca %struct.persist_msg_t, align 8
  %4 = alloca %struct.dbd_register_ctld_msg, align 4
  %5 = alloca i32, align 4
  call void @llvm.lifetime.start.p0(i64 24, ptr nonnull %3) #11
  %6 = getelementptr inbounds nuw i8, ptr %3, i64 16
  store i64 0, ptr %6, align 8
  call void @llvm.lifetime.start.p0(i64 12, ptr nonnull %4) #11
  call void @llvm.lifetime.start.p0(i64 4, ptr nonnull %5) #11
  store i32 0, ptr %5, align 4
  call void @llvm.memset.p0.i64(ptr noundef nonnull align 4 dereferenceable(12) %4, i8 0, i64 12, i1 false)
  %7 = getelementptr inbounds nuw i8, ptr %4, i64 8
  store i16 %1, ptr %7, align 4
  store i16 1, ptr %4, align 4
  %8 = tail call i32 @slurmdb_setup_cluster_flags() #11
  %9 = getelementptr inbounds nuw i8, ptr %4, i64 4
  store i32 %8, ptr %9, align 4
  %10 = getelementptr inbounds nuw i8, ptr %3, i64 16
  store i16 1434, ptr %10, align 8
  store ptr %0, ptr %3, align 8
  %11 = getelementptr inbounds nuw i8, ptr %3, i64 8
  store ptr %4, ptr %11, align 8
  %.not = icmp eq ptr %0, null
  br i1 %.not, label %27, label %12

12:                                               ; preds = %2
  %13 = getelementptr inbounds nuw i8, ptr %0, i64 64
  %14 = load i16, ptr %13, align 8
  %15 = and i16 %14, 32
  %.not7 = icmp eq i16 %15, 0
  br i1 %.not7, label %27, label %16

16:                                               ; preds = %12
  %17 = or i32 %8, 4096
  store i32 %17, ptr %9, align 4
  %18 = call i32 @slurm_get_log_level() #11
  %19 = icmp sgt i32 %18, 2
  br i1 %19, label %20, label %32

20:                                               ; preds = %16
  %21 = zext i16 %1 to i32
  %22 = getelementptr inbounds nuw i8, ptr %0, i64 80
  %23 = load ptr, ptr %22, align 8
  %24 = getelementptr inbounds nuw i8, ptr %0, i64 88
  %25 = load i16, ptr %24, align 8
  %26 = zext i16 %25 to i32
  call void (i32, ptr, ...) @slurm_log_var(i32 noundef 3, ptr noundef nonnull @.str.72, ptr noundef nonnull @plugin_type, ptr noundef nonnull @__func__.clusteracct_storage_p_register_ctld, i32 noundef %21, ptr noundef %23, i32 noundef %26) #11
  br label %32

27:                                               ; preds = %12, %2
  %28 = call i32 @slurm_get_log_level() #11
  %29 = icmp sgt i32 %28, 2
  br i1 %29, label %30, label %32

30:                                               ; preds = %27
  %31 = zext i16 %1 to i32
  call void (i32, ptr, ...) @slurm_log_var(i32 noundef 3, ptr noundef nonnull @.str.73, ptr noundef nonnull @plugin_type, ptr noundef nonnull @__func__.clusteracct_storage_p_register_ctld, i32 noundef %31) #11
  br label %32

32:                                               ; preds = %27, %30, %16, %20
  %33 = call i32 @dbd_conn_send_recv_rc_msg(i16 noundef zeroext 11008, ptr noundef nonnull %3, ptr noundef nonnull %5) #11
  %34 = load i32, ptr %5, align 4
  call void @llvm.lifetime.end.p0(i64 4, ptr nonnull %5) #11
  call void @llvm.lifetime.end.p0(i64 12, ptr nonnull %4) #11
  call void @llvm.lifetime.end.p0(i64 24, ptr nonnull %3) #11
  ret i32 %34
}